; Function Attrs: mustprogress nofree norecurse nosync nounwind memory(read, argmem: readwrite, inaccessiblemem: none) uwtable
define void @_ZN3gmx25linearGridindexToMultiDimERKNS_8BiasGridEiPi(ptr nocapture noundef nonnull readonly align 8 dereferenceable(48) %0, i32 noundef %1, ptr nocapture noundef writeonly %2) local_unnamed_addr #3 {
  %4 = alloca [4 x i32], align 16
  %5 = getelementptr inbounds i8, ptr %0, i64 24
  %6 = getelementptr inbounds i8, ptr %0, i64 32
  %7 = load ptr, ptr %6, align 8
  %8 = load ptr, ptr %5, align 8
  %9 = ptrtoint ptr %7 to i64
  %10 = ptrtoint ptr %8 to i64
  %11 = sub i64 %9, %10
  %12 = sdiv exact i64 %11, 48
  %13 = trunc i64 %12 to i32
  %14 = icmp sgt i32 %13, 0
  br i1 %14, label %.lr.ph.preheader, label %_ZN3gmx26linearArrayIndexToMultiDimEiiPKiPi.exit

.lr.ph.preheader:                                 ; preds = %3
  %wide.trip.count = and i64 %12, 2147483647
  br label %.lr.ph

.lr.ph:                                           ; preds = %.lr.ph.preheader, %.lr.ph
  %indvars.iv = phi i64 [ 0, %.lr.ph.preheader ], [ %indvars.iv.next, %.lr.ph ]
  %15 = getelementptr inbounds %"class.gmx::GridAxis", ptr %8, i64 %indvars.iv, i32 4
  %16 = load i32, ptr %15, align 8
  %17 = getelementptr inbounds [4 x i32], ptr %4, i64 0, i64 %indvars.iv
  store i32 %16, ptr %17, align 4
  %indvars.iv.next = add nuw nsw i64 %indvars.iv, 1
  %exitcond.not = icmp eq i64 %indvars.iv.next, %wide.trip.count
  br i1 %exitcond.not, label %._crit_edge, label %.lr.ph, !llvm.loop !11

._crit_edge:                                      ; preds = %.lr.ph
  br i1 %14, label %.lr.ph26.preheader.i, label %_ZN3gmx26linearArrayIndexToMultiDimEiiPKiPi.exit

.lr.ph26.preheader.i:                             ; preds = %._crit_edge
  %18 = and i64 %12, 2147483647
  br label %.lr.ph26.i

.lr.ph26.i:                                       ; preds = %._crit_edge.i, %.lr.ph26.preheader.i
  %indvars.iv31.i = phi i64 [ 0, %.lr.ph26.preheader.i ], [ %indvars.iv.next32.i, %._crit_edge.i ]
  %indvars.iv.i = phi i64 [ 1, %.lr.ph26.preheader.i ], [ %indvars.iv.next.i, %._crit_edge.i ]
  %.01923.i = phi i32 [ %1, %.lr.ph26.preheader.i ], [ %.recomposed, %._crit_edge.i ]
  %indvars.iv.next32.i = add nuw nsw i64 %indvars.iv31.i, 1
  %19 = icmp ult i64 %indvars.iv.next32.i, %18
  br i1 %19, label %.lr.ph.i, label %._crit_edge.i

.lr.ph.i:                                         ; preds = %.lr.ph26.i, %.lr.ph.i
  %indvars.iv28.i = phi i64 [ %indvars.iv.next29.i, %.lr.ph.i ], [ %indvars.iv.i, %.lr.ph26.i ]
  %.01721.i = phi i32 [ %22, %.lr.ph.i ], [ 1, %.lr.ph26.i ]
  %20 = getelementptr inbounds i32, ptr %4, i64 %indvars.iv28.i
  %21 = load i32, ptr %20, align 4
  %22 = mul nsw i32 %21, %.01721.i
  %indvars.iv.next29.i = add nuw nsw i64 %indvars.iv28.i, 1
  %exitcond.not.i = icmp eq i64 %indvars.iv.next29.i, %18
  br i1 %exitcond.not.i, label %._crit_edge.i, label %.lr.ph.i, !llvm.loop !9

._crit_edge.i:                                    ; preds = %.lr.ph.i, %.lr.ph26.i
  %.017.lcssa.i = phi i32 [ 1, %.lr.ph26.i ], [ %22, %.lr.ph.i ]
  %23 = sdiv i32 %.01923.i, %.017.lcssa.i
  %24 = getelementptr inbounds i32, ptr %2, i64 %indvars.iv31.i
  store i32 %23, ptr %24, align 4
  %25 = mul nsw i32 %23, %.017.lcssa.i
  %.recomposed = srem i32 %.01923.i, %.017.lcssa.i
  %indvars.iv.next.i = add nuw nsw i64 %indvars.iv.i, 1
  %exitcond35.not.i = icmp eq i64 %indvars.iv.next32.i, %18
  br i1 %exitcond35.not.i, label %_ZN3gmx26linearArrayIndexToMultiDimEiiPKiPi.exit, label %.lr.ph26.i, !llvm.loop !10

_ZN3gmx26linearArrayIndexToMultiDimEiiPKiPi.exit: ; preds = %._crit_edge.i, %3, %._crit_edge
  ret void
}